target datalayout = "e-m:e-p270:32:32-p271:32:32-p272:64:64-i64:64-i128:128-f80:128-n8:16:32:64-S128"
target triple = "x86_64-pc-linux-gnu"

%struct.quic_rstream_st = type { %struct.sframe_list_st, ptr, ptr, %struct.uint_range_st, %struct.ring_buf }
%struct.sframe_list_st = type { ptr, ptr, i32, i64, i64, i32, i32 }
%struct.uint_range_st = type { i64, i64 }
%struct.ring_buf = type { ptr, i64, i64, i64 }

; Function Attrs: inlinehint nounwind uwtable
define internal ptr @ring_buf_get_ptr(ptr noundef %0, i64 noundef %1, ptr noundef %2) #3 {
  %4 = alloca ptr, align 8
  %5 = alloca ptr, align 8
  %6 = alloca i64, align 8
  %7 = alloca ptr, align 8
  %8 = alloca ptr, align 8
  %9 = alloca i64, align 8
  %10 = alloca i32, align 4
  store ptr %0, ptr %5, align 8, !tbaa !22
  store i64 %1, ptr %6, align 8, !tbaa !10
  store ptr %2, ptr %7, align 8, !tbaa !36
  call void @llvm.lifetime.start.p0(i64 8, ptr %8) #8
  %11 = load ptr, ptr %5, align 8, !tbaa !22
  %12 = getelementptr inbounds nuw %struct.ring_buf, ptr %11, i32 0, i32 0
  %13 = load ptr, ptr %12, align 8, !tbaa !24
  store ptr %13, ptr %8, align 8, !tbaa !29
  call void @llvm.lifetime.start.p0(i64 8, ptr %9) #8
  %14 = load i64, ptr %6, align 8, !tbaa !10
  %15 = load ptr, ptr %5, align 8, !tbaa !22
  %16 = getelementptr inbounds nuw %struct.ring_buf, ptr %15, i32 0, i32 2
  %17 = load i64, ptr %16, align 8, !tbaa !27
  %18 = icmp uge i64 %14, %17
  br i1 %18, label %25, label %19

19:                                               ; preds = %3
  %20 = load i64, ptr %6, align 8, !tbaa !10
  %21 = load ptr, ptr %5, align 8, !tbaa !22
  %22 = getelementptr inbounds nuw %struct.ring_buf, ptr %21, i32 0, i32 3
  %23 = load i64, ptr %22, align 8, !tbaa !26
  %24 = icmp ult i64 %20, %23
  br i1 %24, label %25, label %26

25:                                               ; preds = %19, %3
  store ptr null, ptr %4, align 8
  store i32 1, ptr %10, align 4
  br label %41

26:                                               ; preds = %19
  %27 = load i64, ptr %6, align 8, !tbaa !10
  %28 = load ptr, ptr %5, align 8, !tbaa !22
  %29 = getelementptr inbounds nuw %struct.ring_buf, ptr %28, i32 0, i32 1
  %30 = load i64, ptr %29, align 8, !tbaa !25
  %31 = urem i64 %27, %30
  store i64 %31, ptr %9, align 8, !tbaa !10
  %32 = load ptr, ptr %5, align 8, !tbaa !22
  %33 = getelementptr inbounds nuw %struct.ring_buf, ptr %32, i32 0, i32 1
  %34 = load i64, ptr %33, align 8, !tbaa !25
  %35 = load i64, ptr %9, align 8, !tbaa !10
  %36 = sub i64 %34, %35
  %37 = load ptr, ptr %7, align 8, !tbaa !36
  store i64 %36, ptr %37, align 8, !tbaa !10
  %38 = load ptr, ptr %8, align 8, !tbaa !29
  %39 = load i64, ptr %9, align 8, !tbaa !10
  %40 = getelementptr inbounds nuw i8, ptr %38, i64 %39
  store ptr %40, ptr %4, align 8
  store i32 1, ptr %10, align 4
  br label %41

41:                                               ; preds = %26, %25
  call void @llvm.lifetime.end.p0(i64 8, ptr %9) #8
  call void @llvm.lifetime.end.p0(i64 8, ptr %8) #8
  %42 = load ptr, ptr %4, align 8
  ret ptr %42
}

; Function Attrs: nounwind uwtable
define i32 @ossl_quic_rstream_get_record(ptr noundef %0, ptr noundef %1, ptr noundef %2, ptr noundef %3) #0 {
  %5 = alloca i32, align 4
  %6 = alloca ptr, align 8
  %7 = alloca ptr, align 8
  %8 = alloca ptr, align 8
  %9 = alloca ptr, align 8
  %10 = alloca ptr, align 8
  %11 = alloca i64, align 8
  %12 = alloca i64, align 8
  %13 = alloca i32, align 4
  store ptr %0, ptr %6, align 8, !tbaa !12
  store ptr %1, ptr %7, align 8, !tbaa !45
  store ptr %2, ptr %8, align 8, !tbaa !36
  store ptr %3, ptr %9, align 8, !tbaa !38
  call void @llvm.lifetime.start.p0(i64 8, ptr %10) #8
  store ptr null, ptr %10, align 8, !tbaa !29
  call void @llvm.lifetime.start.p0(i64 8, ptr %11) #8
  call void @llvm.lifetime.start.p0(i64 8, ptr %12) #8
  %14 = load ptr, ptr %6, align 8, !tbaa !12
  %15 = getelementptr inbounds nuw %struct.quic_rstream_st, ptr %14, i32 0, i32 0
  %16 = load ptr, ptr %6, align 8, !tbaa !12
  %17 = getelementptr inbounds nuw %struct.quic_rstream_st, ptr %16, i32 0, i32 3
  %18 = load ptr, ptr %9, align 8, !tbaa !38
  %19 = call i32 @ossl_sframe_list_lock_head(ptr noundef %15, ptr noundef %17, ptr noundef %10, ptr noundef %18)
  %20 = icmp ne i32 %19, 0
  br i1 %20, label %24, label %21

21:                                               ; preds = %4
  %22 = load ptr, ptr %7, align 8, !tbaa !45
  store ptr null, ptr %22, align 8, !tbaa !29
  %23 = load ptr, ptr %8, align 8, !tbaa !36
  store i64 0, ptr %23, align 8, !tbaa !10
  store i32 1, ptr %5, align 4
  store i32 1, ptr %13, align 4
  br label %111

24:                                               ; preds = %4
  %25 = load ptr, ptr %6, align 8, !tbaa !12
  %26 = getelementptr inbounds nuw %struct.quic_rstream_st, ptr %25, i32 0, i32 3
  %27 = getelementptr inbounds nuw %struct.uint_range_st, ptr %26, i32 0, i32 1
  %28 = load i64, ptr %27, align 8, !tbaa !47
  %29 = load ptr, ptr %6, align 8, !tbaa !12
  %30 = getelementptr inbounds nuw %struct.quic_rstream_st, ptr %29, i32 0, i32 3
  %31 = getelementptr inbounds nuw %struct.uint_range_st, ptr %30, i32 0, i32 0
  %32 = load i64, ptr %31, align 8, !tbaa !48
  %33 = icmp eq i64 %28, %32
  br i1 %33, label %34, label %56

34:                                               ; preds = %24
  %35 = load ptr, ptr %9, align 8, !tbaa !38
  %36 = load i32, ptr %35, align 4, !tbaa !28
  %37 = icmp ne i32 %36, 0
  %38 = xor i1 %37, true
  %39 = xor i1 %38, true
  %40 = zext i1 %39 to i32
  %41 = sext i32 %40 to i64
  %42 = call i64 @llvm.expect.i64(i64 %41, i64 1)
  %43 = icmp ne i64 %42, 0
  br i1 %43, label %45, label %44

44:                                               ; preds = %34
  store i32 0, ptr %5, align 4
  store i32 1, ptr %13, align 4
  br label %111

45:                                               ; preds = %34
  %46 = load ptr, ptr %6, align 8, !tbaa !12
  %47 = getelementptr inbounds nuw %struct.quic_rstream_st, ptr %46, i32 0, i32 0
  %48 = load ptr, ptr %6, align 8, !tbaa !12
  %49 = getelementptr inbounds nuw %struct.quic_rstream_st, ptr %48, i32 0, i32 3
  %50 = getelementptr inbounds nuw %struct.uint_range_st, ptr %49, i32 0, i32 1
  %51 = load i64, ptr %50, align 8, !tbaa !47
  %52 = call i32 @ossl_sframe_list_drop_frames(ptr noundef %47, i64 noundef %51)
  %53 = icmp ne i32 %52, 0
  br i1 %53, label %55, label %54

54:                                               ; preds = %45
  store i32 0, ptr %5, align 4
  store i32 1, ptr %13, align 4
  br label %111

55:                                               ; preds = %45
  br label %56

56:                                               ; preds = %55, %24
  %57 = load ptr, ptr %6, align 8, !tbaa !12
  %58 = getelementptr inbounds nuw %struct.quic_rstream_st, ptr %57, i32 0, i32 3
  %59 = getelementptr inbounds nuw %struct.uint_range_st, ptr %58, i32 0, i32 1
  %60 = load i64, ptr %59, align 8, !tbaa !47
  %61 = load ptr, ptr %6, align 8, !tbaa !12
  %62 = getelementptr inbounds nuw %struct.quic_rstream_st, ptr %61, i32 0, i32 3
  %63 = getelementptr inbounds nuw %struct.uint_range_st, ptr %62, i32 0, i32 0
  %64 = load i64, ptr %63, align 8, !tbaa !48
  %65 = sub i64 %60, %64
  store i64 %65, ptr %11, align 8, !tbaa !10
  %66 = load ptr, ptr %10, align 8, !tbaa !29
  %67 = icmp eq ptr %66, null
  br i1 %67, label %68, label %106

68:                                               ; preds = %56
  %69 = load i64, ptr %11, align 8, !tbaa !10
  %70 = icmp ne i64 %69, 0
  br i1 %70, label %71, label %106

71:                                               ; preds = %68
  %72 = load ptr, ptr %6, align 8, !tbaa !12
  %73 = getelementptr inbounds nuw %struct.quic_rstream_st, ptr %72, i32 0, i32 4
  %74 = load ptr, ptr %6, align 8, !tbaa !12
  %75 = getelementptr inbounds nuw %struct.quic_rstream_st, ptr %74, i32 0, i32 3
  %76 = getelementptr inbounds nuw %struct.uint_range_st, ptr %75, i32 0, i32 0
  %77 = load i64, ptr %76, align 8, !tbaa !48
  %78 = call ptr @ring_buf_get_ptr(ptr noundef %73, i64 noundef %77, ptr noundef %12)
  store ptr %78, ptr %10, align 8, !tbaa !29
  %79 = load ptr, ptr %10, align 8, !tbaa !29
  %80 = icmp ne ptr %79, null
  %81 = zext i1 %80 to i32
  %82 = icmp ne i32 %81, 0
  %83 = xor i1 %82, true
  %84 = xor i1 %83, true
  %85 = zext i1 %84 to i32
  %86 = sext i32 %85 to i64
  %87 = call i64 @llvm.expect.i64(i64 %86, i64 1)
  %88 = icmp ne i64 %87, 0
  br i1 %88, label %90, label %89

89:                                               ; preds = %71
  store i32 0, ptr %5, align 4
  store i32 1, ptr %13, align 4
  br label %111

90:                                               ; preds = %71
  %91 = load i64, ptr %12, align 8, !tbaa !10
  %92 = load i64, ptr %11, align 8, !tbaa !10
  %93 = icmp ult i64 %91, %92
  br i1 %93, label %94, label %105

94:                                               ; preds = %90
  %95 = load i64, ptr %12, align 8, !tbaa !10
  store i64 %95, ptr %11, align 8, !tbaa !10
  %96 = load ptr, ptr %6, align 8, !tbaa !12
  %97 = getelementptr inbounds nuw %struct.quic_rstream_st, ptr %96, i32 0, i32 3
  %98 = getelementptr inbounds nuw %struct.uint_range_st, ptr %97, i32 0, i32 0
  %99 = load i64, ptr %98, align 8, !tbaa !48
  %100 = load i64, ptr %12, align 8, !tbaa !10
  %101 = add i64 %99, %100
  %102 = load ptr, ptr %6, align 8, !tbaa !12
  %103 = getelementptr inbounds nuw %struct.quic_rstream_st, ptr %102, i32 0, i32 3
  %104 = getelementptr inbounds nuw %struct.uint_range_st, ptr %103, i32 0, i32 1
  store i64 %101, ptr %104, align 8, !tbaa !47
  br label %105

105:                                              ; preds = %94, %90
  br label %106

106:                                              ; preds = %105, %68, %56
  %107 = load i64, ptr %11, align 8, !tbaa !10
  %108 = load ptr, ptr %8, align 8, !tbaa !36
  store i64 %107, ptr %108, align 8, !tbaa !10
  %109 = load ptr, ptr %10, align 8, !tbaa !29
  %110 = load ptr, ptr %7, align 8, !tbaa !45
  store ptr %109, ptr %110, align 8, !tbaa !29
  store i32 1, ptr %5, align 4
  store i32 1, ptr %13, align 4
  br label %111

111:                                              ; preds = %106, %89, %54, %44, %21
  call void @llvm.lifetime.end.p0(i64 8, ptr %12) #8
  call void @llvm.lifetime.end.p0(i64 8, ptr %11) #8
  call void @llvm.lifetime.end.p0(i64 8, ptr %10) #8
  %112 = load i32, ptr %5, align 4
  ret i32 %112
}