; Function Attrs: nounwind uwtable
define range(i32 0, 2) i32 @ossl_quic_rstream_get_record(ptr noundef %0, ptr noundef writeonly captures(none) %1, ptr noundef writeonly captures(none) %2, ptr noundef %3) local_unnamed_addr #0 {
  %5 = alloca ptr, align 8
  call void @llvm.lifetime.start.p0(i64 8, ptr nonnull %5) #10
  store ptr null, ptr %5, align 8, !tbaa !27
  %6 = getelementptr inbounds nuw i8, ptr %0, i64 64
  %7 = call i32 @ossl_sframe_list_lock_head(ptr noundef %0, ptr noundef nonnull %6, ptr noundef nonnull %5, ptr noundef %3) #10
  %.not = icmp eq i32 %7, 0
  br i1 %.not, label %8, label %9

8:                                                ; preds = %4
  store ptr null, ptr %1, align 8, !tbaa !27
  store i64 0, ptr %2, align 8, !tbaa !24
  br label %ring_buf_get_ptr.exit.thread

9:                                                ; preds = %4
  %10 = getelementptr inbounds nuw i8, ptr %0, i64 72
  %11 = load i64, ptr %10, align 8, !tbaa !32
  %12 = load i64, ptr %6, align 8, !tbaa !33
  %13 = icmp eq i64 %11, %12
  br i1 %13, label %14, label %18

14:                                               ; preds = %9
  %15 = load i32, ptr %3, align 4, !tbaa !26
  %.not26 = icmp eq i32 %15, 0
  br i1 %.not26, label %ring_buf_get_ptr.exit.thread, label %16, !prof !34

16:                                               ; preds = %14
  %17 = call i32 @ossl_sframe_list_drop_frames(ptr noundef nonnull %0, i64 noundef %11) #10
  %.not27 = icmp eq i32 %17, 0
  br i1 %.not27, label %ring_buf_get_ptr.exit.thread, label %._crit_edge

._crit_edge:                                      ; preds = %16
  %.pre = load i64, ptr %10, align 8, !tbaa !32
  %.pre33 = load i64, ptr %6, align 8, !tbaa !33
  br label %18

18:                                               ; preds = %._crit_edge, %9
  %19 = phi i64 [ %.pre33, %._crit_edge ], [ %12, %9 ]
  %20 = phi i64 [ %.pre, %._crit_edge ], [ %11, %9 ]
  %21 = sub i64 %20, %19
  %22 = load ptr, ptr %5, align 8, !tbaa !27
  %23 = icmp eq ptr %22, null
  %24 = icmp ne i64 %21, 0
  %or.cond = select i1 %23, i1 %24, i1 false
  br i1 %or.cond, label %25, label %43

25:                                               ; preds = %18
  %26 = getelementptr inbounds nuw i8, ptr %0, i64 80
  %27 = load ptr, ptr %26, align 8, !tbaa !20
  %28 = getelementptr inbounds nuw i8, ptr %0, i64 96
  %29 = load i64, ptr %28, align 8, !tbaa !18
  %.not.i = icmp ult i64 %19, %29
  br i1 %.not.i, label %30, label %ring_buf_get_ptr.exit.thread

30:                                               ; preds = %25
  %31 = getelementptr inbounds nuw i8, ptr %0, i64 104
  %32 = load i64, ptr %31, align 8, !tbaa !19
  %33 = icmp ult i64 %19, %32
  br i1 %33, label %ring_buf_get_ptr.exit.thread, label %ring_buf_get_ptr.exit

ring_buf_get_ptr.exit:                            ; preds = %30
  %34 = getelementptr inbounds nuw i8, ptr %0, i64 88
  %35 = load i64, ptr %34, align 8, !tbaa !17
  %36 = urem i64 %19, %35
  %37 = sub i64 %35, %36
  %38 = getelementptr inbounds nuw i8, ptr %27, i64 %36
  %.not28 = icmp eq ptr %27, null
  br i1 %.not28, label %ring_buf_get_ptr.exit.thread, label %39, !prof !29

39:                                               ; preds = %ring_buf_get_ptr.exit
  %40 = icmp ult i64 %37, %21
  br i1 %40, label %41, label %43

41:                                               ; preds = %39
  %42 = add i64 %37, %19
  store i64 %42, ptr %10, align 8, !tbaa !32
  br label %43

43:                                               ; preds = %39, %41, %18
  %44 = phi ptr [ %38, %41 ], [ %38, %39 ], [ %22, %18 ]
  %.0 = phi i64 [ %37, %41 ], [ %21, %39 ], [ %21, %18 ]
  store i64 %.0, ptr %2, align 8, !tbaa !24
  store ptr %44, ptr %1, align 8, !tbaa !27
  br label %ring_buf_get_ptr.exit.thread

ring_buf_get_ptr.exit.thread:                     ; preds = %25, %30, %ring_buf_get_ptr.exit, %16, %14, %43, %8
  %.022 = phi i32 [ 1, %43 ], [ 1, %8 ], [ 0, %14 ], [ 0, %16 ], [ 0, %ring_buf_get_ptr.exit ], [ 0, %30 ], [ 0, %25 ]
  call void @llvm.lifetime.end.p0(i64 8, ptr nonnull %5) #10
  ret i32 %.022
}